target datalayout = "e-m:e-p270:32:32-p271:32:32-p272:64:64-i64:64-i128:128-f80:128-n8:16:32:64-S128"
target triple = "x86_64-pc-linux-gnu"

; Function Attrs: nounwind uwtable
define void @Abc_SortMerge(ptr noundef %0, ptr noundef %1, ptr noundef %2, ptr noundef %3, ptr noundef %4) #0 {
  %6 = alloca ptr, align 8
  %7 = alloca ptr, align 8
  %8 = alloca ptr, align 8
  %9 = alloca ptr, align 8
  %10 = alloca ptr, align 8
  %11 = alloca i32, align 4
  %12 = alloca ptr, align 8
  store ptr %0, ptr %6, align 8
  store ptr %1, ptr %7, align 8
  store ptr %2, ptr %8, align 8
  store ptr %3, ptr %9, align 8
  store ptr %4, ptr %10, align 8
  %13 = load ptr, ptr %7, align 8
  %14 = load ptr, ptr %6, align 8
  %15 = ptrtoint ptr %13 to i64
  %16 = ptrtoint ptr %14 to i64
  %17 = sub i64 %15, %16
  %18 = sdiv exact i64 %17, 4
  %19 = load ptr, ptr %9, align 8
  %20 = load ptr, ptr %8, align 8
  %21 = ptrtoint ptr %19 to i64
  %22 = ptrtoint ptr %20 to i64
  %23 = sub i64 %21, %22
  %24 = sdiv exact i64 %23, 4
  %25 = add nsw i64 %18, %24
  %26 = trunc i64 %25 to i32
  store i32 %26, ptr %11, align 4
  %27 = load ptr, ptr %10, align 8
  store ptr %27, ptr %12, align 8
  br label %28

28:                                               ; preds = %74, %5
  %29 = load ptr, ptr %6, align 8
  %30 = load ptr, ptr %7, align 8
  %31 = icmp ult ptr %29, %30
  br i1 %31, label %32, label %36

32:                                               ; preds = %28
  %33 = load ptr, ptr %8, align 8
  %34 = load ptr, ptr %9, align 8
  %35 = icmp ult ptr %33, %34
  br label %36

36:                                               ; preds = %32, %28
  %37 = phi i1 [ false, %28 ], [ %35, %32 ]
  br i1 %37, label %38, label %75

38:                                               ; preds = %36
  %39 = load ptr, ptr %6, align 8
  %40 = load i32, ptr %39, align 4
  %41 = load ptr, ptr %8, align 8
  %42 = load i32, ptr %41, align 4
  %43 = icmp eq i32 %40, %42
  br i1 %43, label %44, label %55

44:                                               ; preds = %38
  %45 = load ptr, ptr %6, align 8
  %46 = getelementptr inbounds i32, ptr %45, i32 1
  store ptr %46, ptr %6, align 8
  %47 = load i32, ptr %45, align 4
  %48 = load ptr, ptr %10, align 8
  %49 = getelementptr inbounds i32, ptr %48, i32 1
  store ptr %49, ptr %10, align 8
  store i32 %47, ptr %48, align 4
  %50 = load ptr, ptr %8, align 8
  %51 = getelementptr inbounds i32, ptr %50, i32 1
  store ptr %51, ptr %8, align 8
  %52 = load i32, ptr %50, align 4
  %53 = load ptr, ptr %10, align 8
  %54 = getelementptr inbounds i32, ptr %53, i32 1
  store ptr %54, ptr %10, align 8
  store i32 %52, ptr %53, align 4
  br label %74

55:                                               ; preds = %38
  %56 = load ptr, ptr %6, align 8
  %57 = load i32, ptr %56, align 4
  %58 = load ptr, ptr %8, align 8
  %59 = load i32, ptr %58, align 4
  %60 = icmp slt i32 %57, %59
  br i1 %60, label %61, label %67

61:                                               ; preds = %55
  %62 = load ptr, ptr %6, align 8
  %63 = getelementptr inbounds i32, ptr %62, i32 1
  store ptr %63, ptr %6, align 8
  %64 = load i32, ptr %62, align 4
  %65 = load ptr, ptr %10, align 8
  %66 = getelementptr inbounds i32, ptr %65, i32 1
  store ptr %66, ptr %10, align 8
  store i32 %64, ptr %65, align 4
  br label %73

67:                                               ; preds = %55
  %68 = load ptr, ptr %8, align 8
  %69 = getelementptr inbounds i32, ptr %68, i32 1
  store ptr %69, ptr %8, align 8
  %70 = load i32, ptr %68, align 4
  %71 = load ptr, ptr %10, align 8
  %72 = getelementptr inbounds i32, ptr %71, i32 1
  store ptr %72, ptr %10, align 8
  store i32 %70, ptr %71, align 4
  br label %73

73:                                               ; preds = %67, %61
  br label %74

74:                                               ; preds = %73, %44
  br label %28, !llvm.loop !4

75:                                               ; preds = %36
  br label %76

76:                                               ; preds = %80, %75
  %77 = load ptr, ptr %6, align 8
  %78 = load ptr, ptr %7, align 8
  %79 = icmp ult ptr %77, %78
  br i1 %79, label %80, label %86

80:                                               ; preds = %76
  %81 = load ptr, ptr %6, align 8
  %82 = getelementptr inbounds i32, ptr %81, i32 1
  store ptr %82, ptr %6, align 8
  %83 = load i32, ptr %81, align 4
  %84 = load ptr, ptr %10, align 8
  %85 = getelementptr inbounds i32, ptr %84, i32 1
  store ptr %85, ptr %10, align 8
  store i32 %83, ptr %84, align 4
  br label %76, !llvm.loop !6

86:                                               ; preds = %76
  br label %87

87:                                               ; preds = %91, %86
  %88 = load ptr, ptr %8, align 8
  %89 = load ptr, ptr %9, align 8
  %90 = icmp ult ptr %88, %89
  br i1 %90, label %91, label %97

91:                                               ; preds = %87
  %92 = load ptr, ptr %8, align 8
  %93 = getelementptr inbounds i32, ptr %92, i32 1
  store ptr %93, ptr %8, align 8
  %94 = load i32, ptr %92, align 4
  %95 = load ptr, ptr %10, align 8
  %96 = getelementptr inbounds i32, ptr %95, i32 1
  store ptr %96, ptr %10, align 8
  store i32 %94, ptr %95, align 4
  br label %87, !llvm.loop !7

97:                                               ; preds = %87
  ret void
}