; Function Attrs: nofree norecurse nosync nounwind memory(argmem: readwrite) uwtable
define void @Abc_SortMerge(ptr noundef readonly %0, ptr noundef readnone %1, ptr noundef readonly %2, ptr noundef readnone %3, ptr noundef writeonly captures(none) %4) local_unnamed_addr #0 {
  %6 = icmp ult ptr %0, %1
  %7 = icmp ult ptr %2, %3
  %8 = and i1 %6, %7
  br i1 %8, label %.lr.ph, label %.preheader38

.preheader38:                                     ; preds = %25, %5
  %.032.lcssa = phi ptr [ %4, %5 ], [ %.133, %25 ]
  %.029.lcssa = phi ptr [ %2, %5 ], [ %.130, %25 ]
  %.0.lcssa = phi ptr [ %0, %5 ], [ %.1, %25 ]
  %9 = icmp ult ptr %.0.lcssa, %1
  br i1 %9, label %.lr.ph46, label %.preheader

.lr.ph:                                           ; preds = %5, %25
  %.041 = phi ptr [ %.1, %25 ], [ %0, %5 ]
  %.02940 = phi ptr [ %.130, %25 ], [ %2, %5 ]
  %.03239 = phi ptr [ %.133, %25 ], [ %4, %5 ]
  %10 = load i32, ptr %.041, align 4
  %11 = load i32, ptr %.02940, align 4
  %12 = icmp eq i32 %10, %11
  %13 = getelementptr inbounds nuw i8, ptr %.03239, i64 4
  br i1 %12, label %14, label %19

14:                                               ; preds = %.lr.ph
  %15 = getelementptr inbounds nuw i8, ptr %.041, i64 4
  store i32 %10, ptr %.03239, align 4
  %16 = getelementptr inbounds nuw i8, ptr %.02940, i64 4
  %17 = load i32, ptr %.02940, align 4
  %18 = getelementptr inbounds nuw i8, ptr %.03239, i64 8
  store i32 %17, ptr %13, align 4
  br label %25

19:                                               ; preds = %.lr.ph
  %20 = icmp slt i32 %10, %11
  br i1 %20, label %21, label %23

21:                                               ; preds = %19
  %22 = getelementptr inbounds nuw i8, ptr %.041, i64 4
  store i32 %10, ptr %.03239, align 4
  br label %25

23:                                               ; preds = %19
  %24 = getelementptr inbounds nuw i8, ptr %.02940, i64 4
  store i32 %11, ptr %.03239, align 4
  br label %25

25:                                               ; preds = %21, %23, %14
  %.133 = phi ptr [ %18, %14 ], [ %13, %21 ], [ %13, %23 ]
  %.130 = phi ptr [ %16, %14 ], [ %.02940, %21 ], [ %24, %23 ]
  %.1 = phi ptr [ %15, %14 ], [ %22, %21 ], [ %.041, %23 ]
  %26 = icmp ult ptr %.1, %1
  %27 = icmp ult ptr %.130, %3
  %28 = select i1 %26, i1 %27, i1 false
  br i1 %28, label %.lr.ph, label %.preheader38, !llvm.loop !4

.preheader:                                       ; preds = %.lr.ph46, %.preheader38
  %.234.lcssa = phi ptr [ %.032.lcssa, %.preheader38 ], [ %32, %.lr.ph46 ]
  %29 = icmp ult ptr %.029.lcssa, %3
  br i1 %29, label %.lr.ph50, label %._crit_edge

.lr.ph46:                                         ; preds = %.preheader38, %.lr.ph46
  %.245 = phi ptr [ %30, %.lr.ph46 ], [ %.0.lcssa, %.preheader38 ]
  %.23444 = phi ptr [ %32, %.lr.ph46 ], [ %.032.lcssa, %.preheader38 ]
  %30 = getelementptr inbounds nuw i8, ptr %.245, i64 4
  %31 = load i32, ptr %.245, align 4
  %32 = getelementptr inbounds nuw i8, ptr %.23444, i64 4
  store i32 %31, ptr %.23444, align 4
  %33 = icmp ult ptr %30, %1
  br i1 %33, label %.lr.ph46, label %.preheader, !llvm.loop !6

.lr.ph50:                                         ; preds = %.preheader, %.lr.ph50
  %.23149 = phi ptr [ %34, %.lr.ph50 ], [ %.029.lcssa, %.preheader ]
  %.348 = phi ptr [ %36, %.lr.ph50 ], [ %.234.lcssa, %.preheader ]
  %34 = getelementptr inbounds nuw i8, ptr %.23149, i64 4
  %35 = load i32, ptr %.23149, align 4
  %36 = getelementptr inbounds nuw i8, ptr %.348, i64 4
  store i32 %35, ptr %.348, align 4
  %37 = icmp ult ptr %34, %3
  br i1 %37, label %.lr.ph50, label %._crit_edge, !llvm.loop !7

._crit_edge:                                      ; preds = %.lr.ph50, %.preheader
  ret void
}